; Function Attrs: nounwind uwtable
define hidden void @_PyEval_FiniGIL(ptr noundef captures(none) %0) local_unnamed_addr #4 {
  %2 = getelementptr inbounds nuw i8, ptr %0, i64 16
  %3 = load ptr, ptr %2, align 8, !tbaa !21
  %4 = icmp eq ptr %3, null
  br i1 %4, label %27, label %5

5:                                                ; preds = %1
  %6 = getelementptr inbounds nuw i8, ptr %0, i64 24
  %7 = load i32, ptr %6, align 8, !tbaa !179
  %.not = icmp eq i32 %7, 0
  br i1 %.not, label %.sink.split, label %gil_created.exit

gil_created.exit:                                 ; preds = %5
  %8 = getelementptr inbounds nuw i8, ptr %3, i64 16
  %9 = load atomic i32, ptr %8 acquire, align 4
  %10 = icmp slt i32 %9, 0
  br i1 %10, label %27, label %11

11:                                               ; preds = %gil_created.exit
  %12 = getelementptr inbounds nuw i8, ptr %3, i64 32
  %13 = tail call i32 @pthread_cond_destroy(ptr noundef nonnull %12) #14
  %.not.i = icmp eq i32 %13, 0
  br i1 %.not.i, label %15, label %14

14:                                               ; preds = %11
  tail call void @_Py_FatalErrorFunc(ptr noundef nonnull @__func__.destroy_gil, ptr noundef nonnull @.str.5) #15
  unreachable

15:                                               ; preds = %11
  %16 = getelementptr inbounds nuw i8, ptr %3, i64 80
  %17 = tail call i32 @pthread_mutex_destroy(ptr noundef nonnull %16) #14
  %.not5.i = icmp eq i32 %17, 0
  br i1 %.not5.i, label %19, label %18

18:                                               ; preds = %15
  tail call void @_Py_FatalErrorFunc(ptr noundef nonnull @__func__.destroy_gil, ptr noundef nonnull @.str.6) #15
  unreachable

19:                                               ; preds = %15
  %20 = getelementptr inbounds nuw i8, ptr %3, i64 120
  %21 = tail call i32 @pthread_cond_destroy(ptr noundef nonnull %20) #14
  %.not6.i = icmp eq i32 %21, 0
  br i1 %.not6.i, label %23, label %22

22:                                               ; preds = %19
  tail call void @_Py_FatalErrorFunc(ptr noundef nonnull @__func__.destroy_gil, ptr noundef nonnull @.str.7) #15
  unreachable

23:                                               ; preds = %19
  %24 = getelementptr inbounds nuw i8, ptr %3, i64 168
  %25 = tail call i32 @pthread_mutex_destroy(ptr noundef nonnull %24) #14
  %.not7.i = icmp eq i32 %25, 0
  br i1 %.not7.i, label %destroy_gil.exit, label %26

26:                                               ; preds = %23
  tail call void @_Py_FatalErrorFunc(ptr noundef nonnull @__func__.destroy_gil, ptr noundef nonnull @.str.8) #15
  unreachable

destroy_gil.exit:                                 ; preds = %23
  store atomic i32 -1, ptr %8 release, align 4
  br label %.sink.split

.sink.split:                                      ; preds = %5, %destroy_gil.exit
  store ptr null, ptr %2, align 8, !tbaa !21
  br label %27

27:                                               ; preds = %.sink.split, %gil_created.exit, %1
  ret void
}